; Function Attrs: nounwind uwtable
define internal range(i32 0, 2) i32 @dsa_param_decode(ptr noundef %0, ptr noundef %1, i32 noundef %2) #0 {
  %4 = sext i32 %2 to i64
  %5 = tail call ptr @d2i_DSAparams(ptr noundef null, ptr noundef %1, i64 noundef %4) #5
  %6 = icmp eq ptr %5, null
  br i1 %6, label %12, label %7

7:                                                ; preds = %3
  %8 = getelementptr inbounds nuw i8, ptr %5, i64 192
  %9 = load i64, ptr %8, align 8, !tbaa !28
  %10 = add i64 %9, 1
  store i64 %10, ptr %8, align 8, !tbaa !28
  %11 = tail call i32 @EVP_PKEY_assign(ptr noundef %0, i32 noundef 116, ptr noundef nonnull %5) #5
  br label %12

12:                                               ; preds = %3, %7
  %.0 = phi i32 [ 1, %7 ], [ 0, %3 ]
  ret i32 %.0
}